; Function Attrs: mustprogress nofree norecurse nosync nounwind null_pointer_is_valid sspstrong willreturn memory(argmem: read) uwtable
define internal i32 @spx_hash_func(ptr noundef readonly captures(none) %0) #2 {
  %2 = load ptr, ptr %0, align 8
  %3 = ptrtoint ptr %2 to i64
  %4 = trunc i64 %3 to i32
  %5 = getelementptr inbounds nuw i8, ptr %0, i64 8
  %6 = load i32, ptr %5, align 8
  %7 = add i32 %6, %4
  ret i32 %7
}